; Function Attrs: mustprogress nofree norecurse nosync nounwind willreturn memory(read, inaccessiblemem: none) uwtable
define hidden noundef zeroext i1 @_ZNK23expr_context_simplifier7is_trueEP4expr(ptr noundef nonnull readonly align 8 captures(none) dereferenceable(161) %0, ptr noundef readonly captures(address) %1) local_unnamed_addr #8 align 2 {
  %3 = load ptr, ptr %0, align 8, !tbaa !54
  %4 = getelementptr inbounds nuw i8, ptr %3, i64 856
  %5 = load ptr, ptr %4, align 8, !tbaa !93
  %6 = icmp eq ptr %1, %5
  br i1 %6, label %_ZNK11ast_manager6is_notEPK4expr.exit.thread, label %7

7:                                                ; preds = %2
  %8 = getelementptr inbounds nuw i8, ptr %1, i64 4
  %9 = load i32, ptr %8, align 4
  %10 = and i32 %9, 65535
  %11 = icmp eq i32 %10, 0
  br i1 %11, label %12, label %_ZNK11ast_manager6is_notEPK4expr.exit.thread

12:                                               ; preds = %7
  %13 = getelementptr inbounds nuw i8, ptr %1, i64 16
  %14 = load ptr, ptr %13, align 8, !tbaa !71
  %15 = getelementptr inbounds nuw i8, ptr %14, i64 24
  %16 = load ptr, ptr %15, align 8, !tbaa !76
  %.not.i.i.i.i = icmp eq ptr %16, null
  br i1 %.not.i.i.i.i, label %_ZNK11ast_manager6is_notEPK4expr.exit.thread, label %_ZNK11ast_manager6is_notEPK4expr.exit

_ZNK11ast_manager6is_notEPK4expr.exit:            ; preds = %12
  %17 = load i32, ptr %16, align 8, !tbaa !81
  %18 = icmp eq i32 %17, 0
  %19 = getelementptr inbounds nuw i8, ptr %16, i64 4
  %20 = load i32, ptr %19, align 4
  %21 = icmp eq i32 %20, 8
  %22 = select i1 %18, i1 %21, i1 false
  br i1 %22, label %23, label %_ZNK11ast_manager6is_notEPK4expr.exit.thread

23:                                               ; preds = %_ZNK11ast_manager6is_notEPK4expr.exit
  %24 = getelementptr inbounds nuw i8, ptr %1, i64 32
  %25 = load ptr, ptr %24, align 8, !tbaa !49
  %26 = getelementptr inbounds nuw i8, ptr %3, i64 864
  %27 = load ptr, ptr %26, align 8, !tbaa !152
  %28 = icmp eq ptr %25, %27
  br label %_ZNK11ast_manager6is_notEPK4expr.exit.thread

_ZNK11ast_manager6is_notEPK4expr.exit.thread:     ; preds = %12, %7, %_ZNK11ast_manager6is_notEPK4expr.exit, %23, %2
  %29 = phi i1 [ true, %2 ], [ false, %_ZNK11ast_manager6is_notEPK4expr.exit ], [ %28, %23 ], [ false, %7 ], [ false, %12 ]
  ret i1 %29
}